; Function Attrs: mustprogress nofree norecurse nosync nounwind willreturn memory(read, inaccessiblemem: none) uwtable
define dso_local noundef ptr @_ZN4llvm16DebugHandlerBase18getLabelBeforeInsnEPKNS_12MachineInstrE(ptr noundef nonnull readonly align 8 captures(none) dereferenceable(480) %0, ptr noundef %1) local_unnamed_addr #5 align 2 {
  %3 = getelementptr inbounds nuw i8, ptr %0, i64 408
  %4 = load ptr, ptr %3, align 8
  %5 = getelementptr inbounds nuw i8, ptr %0, i64 424
  %6 = load i32, ptr %5, align 8
  %7 = icmp eq i32 %6, 0
  br i1 %7, label %_ZNK4llvm12DenseMapBaseINS_8DenseMapIPKNS_12MachineInstrEPNS_8MCSymbolENS_12DenseMapInfoIS4_vEENS_6detail12DenseMapPairIS4_S6_EEEES4_S6_S8_SB_E6lookupES4_.exit, label %8

8:                                                ; preds = %2
  %9 = ptrtoint ptr %1 to i64
  %10 = trunc i64 %9 to i32
  %11 = lshr i32 %10, 4
  %12 = lshr i32 %10, 9
  %13 = xor i32 %11, %12
  %14 = add i32 %6, -1
  %.01618.i.i.i = and i32 %14, %13
  %15 = zext nneg i32 %.01618.i.i.i to i64
  %16 = getelementptr inbounds nuw %"struct.llvm::detail::DenseMapPair", ptr %4, i64 %15
  %17 = load ptr, ptr %16, align 8
  %18 = icmp eq ptr %1, %17
  br i1 %18, label %_ZNK4llvm12DenseMapBaseINS_8DenseMapIPKNS_12MachineInstrEPNS_8MCSymbolENS_12DenseMapInfoIS4_vEENS_6detail12DenseMapPairIS4_S6_EEEES4_S6_S8_SB_E6doFindIS4_EEPKSB_RKT_.exit.i, label %.lr.ph.i.i.i

.lr.ph.i.i.i:                                     ; preds = %8, %21
  %19 = phi ptr [ %26, %21 ], [ %17, %8 ]
  %.01620.i.i.i = phi i32 [ %.016.i.i.i, %21 ], [ %.01618.i.i.i, %8 ]
  %.01519.i.i.i = phi i32 [ %22, %21 ], [ 1, %8 ]
  %20 = icmp eq ptr %19, inttoptr (i64 -4096 to ptr)
  br i1 %20, label %_ZNK4llvm12DenseMapBaseINS_8DenseMapIPKNS_12MachineInstrEPNS_8MCSymbolENS_12DenseMapInfoIS4_vEENS_6detail12DenseMapPairIS4_S6_EEEES4_S6_S8_SB_E6lookupES4_.exit, label %21

21:                                               ; preds = %.lr.ph.i.i.i
  %22 = add i32 %.01519.i.i.i, 1
  %23 = add i32 %.01519.i.i.i, %.01620.i.i.i
  %.016.i.i.i = and i32 %23, %14
  %24 = zext i32 %.016.i.i.i to i64
  %25 = getelementptr inbounds nuw %"struct.llvm::detail::DenseMapPair", ptr %4, i64 %24
  %26 = load ptr, ptr %25, align 8
  %27 = icmp eq ptr %1, %26
  br i1 %27, label %_ZNK4llvm12DenseMapBaseINS_8DenseMapIPKNS_12MachineInstrEPNS_8MCSymbolENS_12DenseMapInfoIS4_vEENS_6detail12DenseMapPairIS4_S6_EEEES4_S6_S8_SB_E6doFindIS4_EEPKSB_RKT_.exit.i, label %.lr.ph.i.i.i, !llvm.loop !25

_ZNK4llvm12DenseMapBaseINS_8DenseMapIPKNS_12MachineInstrEPNS_8MCSymbolENS_12DenseMapInfoIS4_vEENS_6detail12DenseMapPairIS4_S6_EEEES4_S6_S8_SB_E6doFindIS4_EEPKSB_RKT_.exit.i: ; preds = %21, %8
  %28 = phi i64 [ %15, %8 ], [ %24, %21 ]
  %29 = getelementptr inbounds nuw %"struct.llvm::detail::DenseMapPair", ptr %4, i64 %28, i32 0, i32 1
  %30 = load ptr, ptr %29, align 8
  br label %_ZNK4llvm12DenseMapBaseINS_8DenseMapIPKNS_12MachineInstrEPNS_8MCSymbolENS_12DenseMapInfoIS4_vEENS_6detail12DenseMapPairIS4_S6_EEEES4_S6_S8_SB_E6lookupES4_.exit

_ZNK4llvm12DenseMapBaseINS_8DenseMapIPKNS_12MachineInstrEPNS_8MCSymbolENS_12DenseMapInfoIS4_vEENS_6detail12DenseMapPairIS4_S6_EEEES4_S6_S8_SB_E6lookupES4_.exit: ; preds = %.lr.ph.i.i.i, %2, %_ZNK4llvm12DenseMapBaseINS_8DenseMapIPKNS_12MachineInstrEPNS_8MCSymbolENS_12DenseMapInfoIS4_vEENS_6detail12DenseMapPairIS4_S6_EEEES4_S6_S8_SB_E6doFindIS4_EEPKSB_RKT_.exit.i
  %.0.i = phi ptr [ %30, %_ZNK4llvm12DenseMapBaseINS_8DenseMapIPKNS_12MachineInstrEPNS_8MCSymbolENS_12DenseMapInfoIS4_vEENS_6detail12DenseMapPairIS4_S6_EEEES4_S6_S8_SB_E6doFindIS4_EEPKSB_RKT_.exit.i ], [ null, %2 ], [ null, %.lr.ph.i.i.i ]
  ret ptr %.0.i
}